target datalayout = "e-m:e-p270:32:32-p271:32:32-p272:64:64-i64:64-i128:128-f80:128-n8:16:32:64-S128"
target triple = "x86_64-pc-linux-gnu"

%struct.strbuf = type { i64, i64, ptr }
%struct.list_objects_filter_options = type { %struct.strbuf, i32, i8, ptr, i64, i64, i32, i64, i64, ptr }
%struct.promisor_remote = type { ptr, ptr, [0 x i8] }

@the_repository = external global ptr, align 8
@__const.partial_clone_get_default_filter_spec.errbuf = private unnamed_addr constant %struct.strbuf { i64 0, i64 0, ptr @strbuf_slopbuf }, align 8

; Function Attrs: inlinehint nounwind uwtable
define internal void @strbuf_addstr(ptr noundef %0, ptr noundef %1) #4 {
  %3 = alloca ptr, align 8
  %4 = alloca ptr, align 8
  store ptr %0, ptr %3, align 8, !tbaa !13
  store ptr %1, ptr %4, align 8, !tbaa !11
  %5 = load ptr, ptr %3, align 8, !tbaa !13
  %6 = load ptr, ptr %4, align 8, !tbaa !11
  %7 = load ptr, ptr %4, align 8, !tbaa !11
  %8 = call i64 @strlen(ptr noundef %7) #11
  call void @strbuf_add(ptr noundef %5, ptr noundef %6, i64 noundef %8)
  ret void
}

; Function Attrs: nounwind uwtable
define dso_local void @partial_clone_get_default_filter_spec(ptr noundef %0, ptr noundef %1) #0 {
  %3 = alloca ptr, align 8
  %4 = alloca ptr, align 8
  %5 = alloca ptr, align 8
  %6 = alloca %struct.strbuf, align 8
  %7 = alloca i32, align 4
  store ptr %0, ptr %3, align 8, !tbaa !8
  store ptr %1, ptr %4, align 8, !tbaa !11
  call void @llvm.lifetime.start.p0(i64 8, ptr %5) #10
  %8 = load ptr, ptr @the_repository, align 8, !tbaa !44
  %9 = load ptr, ptr %4, align 8, !tbaa !11
  %10 = call ptr @repo_promisor_remote_find(ptr noundef %8, ptr noundef %9)
  store ptr %10, ptr %5, align 8, !tbaa !46
  call void @llvm.lifetime.start.p0(i64 24, ptr %6) #10
  call void @llvm.memcpy.p0.p0.i64(ptr align 8 %6, ptr align 8 @__const.partial_clone_get_default_filter_spec.errbuf, i64 24, i1 false)
  %11 = load ptr, ptr %5, align 8, !tbaa !46
  %12 = icmp ne ptr %11, null
  br i1 %12, label %13, label %18

13:                                               ; preds = %2
  %14 = load ptr, ptr %5, align 8, !tbaa !46
  %15 = getelementptr inbounds nuw %struct.promisor_remote, ptr %14, i32 0, i32 1
  %16 = load ptr, ptr %15, align 8, !tbaa !11
  %17 = icmp ne ptr %16, null
  br i1 %17, label %19, label %18

18:                                               ; preds = %13, %2
  store i32 1, ptr %7, align 4
  br label %30

19:                                               ; preds = %13
  %20 = load ptr, ptr %3, align 8, !tbaa !8
  %21 = getelementptr inbounds nuw %struct.list_objects_filter_options, ptr %20, i32 0, i32 0
  %22 = load ptr, ptr %5, align 8, !tbaa !46
  %23 = getelementptr inbounds nuw %struct.promisor_remote, ptr %22, i32 0, i32 1
  %24 = load ptr, ptr %23, align 8, !tbaa !11
  call void @strbuf_addstr(ptr noundef %21, ptr noundef %24)
  %25 = load ptr, ptr %3, align 8, !tbaa !8
  %26 = load ptr, ptr %5, align 8, !tbaa !46
  %27 = getelementptr inbounds nuw %struct.promisor_remote, ptr %26, i32 0, i32 1
  %28 = load ptr, ptr %27, align 8, !tbaa !11
  %29 = call i32 @gently_parse_list_objects_filter(ptr noundef %25, ptr noundef %28, ptr noundef %6)
  call void @strbuf_release(ptr noundef %6)
  store i32 0, ptr %7, align 4
  br label %30

30:                                               ; preds = %19, %18
  call void @llvm.lifetime.end.p0(i64 24, ptr %6) #10
  call void @llvm.lifetime.end.p0(i64 8, ptr %5) #10
  %31 = load i32, ptr %7, align 4
  switch i32 %31, label %33 [
    i32 0, label %32
    i32 1, label %32
  ]

32:                                               ; preds = %30, %30
  ret void

33:                                               ; preds = %30
  unreachable
}