; Function Attrs: nounwind uwtable
define dso_local void @partial_clone_get_default_filter_spec(ptr noundef %0, ptr noundef %1) local_unnamed_addr #0 {
  %3 = alloca %struct.strbuf, align 8
  %4 = load ptr, ptr @the_repository, align 8, !tbaa !42
  %5 = tail call ptr @repo_promisor_remote_find(ptr noundef %4, ptr noundef %1) #16
  call void @llvm.lifetime.start.p0(i64 24, ptr nonnull %3) #16
  call void @llvm.memcpy.p0.p0.i64(ptr noundef nonnull align 8 dereferenceable(24) %3, ptr noundef nonnull align 8 dereferenceable(24) @__const.partial_clone_get_default_filter_spec.errbuf, i64 24, i1 false)
  %.not = icmp eq ptr %5, null
  br i1 %.not, label %13, label %6

6:                                                ; preds = %2
  %7 = getelementptr inbounds nuw i8, ptr %5, i64 8
  %8 = load ptr, ptr %7, align 8, !tbaa !32
  %.not8 = icmp eq ptr %8, null
  br i1 %.not8, label %13, label %9

9:                                                ; preds = %6
  %10 = tail call i64 @strlen(ptr noundef nonnull dereferenceable(1) %8) #15
  tail call void @strbuf_add(ptr noundef %0, ptr noundef nonnull %8, i64 noundef %10) #16
  %11 = load ptr, ptr %7, align 8, !tbaa !32
  %12 = call i32 @gently_parse_list_objects_filter(ptr noundef %0, ptr noundef %11, ptr noundef nonnull %3)
  call void @strbuf_release(ptr noundef nonnull %3) #16
  br label %13

13:                                               ; preds = %2, %6, %9
  call void @llvm.lifetime.end.p0(i64 24, ptr nonnull %3) #16
  ret void
}